target datalayout = "e-m:e-p270:32:32-p271:32:32-p272:64:64-i64:64-i128:128-f80:128-n8:16:32:64-S128"
target triple = "x86_64-pc-linux-gnu"

%struct._packet_info = type { ptr, ptr, i32, i32, %struct.nstime_t, %struct.nstime_t, %struct.nstime_t, i32, ptr, ptr, ptr, ptr, %struct._address, %struct._address, %struct._address, %struct._address, %struct._address, %struct._address, i32, ptr, i32, %struct.anon, i32, i32, i32, i32, ptr, i32, ptr, ptr, i16, i16, i32, i32, i16, i32, i32, ptr, ptr, ptr, i8, i8, i16, i16, i16, i32, i16, i16, ptr, ptr, ptr, ptr, ptr, i32 }
%struct.nstime_t = type { i64, i32 }
%struct._address = type { i32, i32, ptr, ptr }
%struct.anon = type { i8, [3 x i8] }

@hf_ubx_cfg_gnss = internal global i32 0, align 4
@.str.14 = private unnamed_addr constant [13 x i8] c"UBX-CFG-GNSS\00", align 1
@hf_ubx_cfg_gnss_version = internal global i32 0, align 4
@hf_ubx_cfg_gnss_numtrkchhw = internal global i32 0, align 4
@hf_ubx_cfg_gnss_numtrkchuse = internal global i32 0, align 4
@hf_ubx_cfg_gnss_numconfigblocks = internal global i32 0, align 4
@hf_ubx_cfg_gnss_blk_gnssid = internal global i32 0, align 4
@hf_ubx_cfg_gnss_blk_restrkch = internal global i32 0, align 4
@hf_ubx_cfg_gnss_blk_maxtrkch = internal global i32 0, align 4
@hf_ubx_cfg_gnss_blk_reserved1 = internal global i32 0, align 4
@hf_ubx_cfg_gnss_blk_enable = internal global i32 0, align 4
@hf_ubx_cfg_gnss_blk_sigcfgmask = internal global i32 0, align 4
@hf_ubx_cfg_gnss_blk_gps_sigcfgmask = internal global i32 0, align 4
@hf_ubx_cfg_gnss_blk_sbas_sigcfgmask = internal global i32 0, align 4
@hf_ubx_cfg_gnss_blk_gal_sigcfgmask = internal global i32 0, align 4
@hf_ubx_cfg_gnss_blk_bds_sigcfgmask = internal global i32 0, align 4
@hf_ubx_cfg_gnss_blk_imes_sigcfgmask = internal global i32 0, align 4
@hf_ubx_cfg_gnss_blk_qzss_sigcfgmask = internal global i32 0, align 4
@hf_ubx_cfg_gnss_blk_glo_sigcfgmask = internal global i32 0, align 4
@ett_ubx_cfg_gnss = internal global i32 0, align 4
@ett_ubx_cfg_gnss_block = internal global [255 x i32] zeroinitializer, align 16
@.str.757 = private unnamed_addr constant [38 x i8] c"%-7s (Res Trk Ch %2d, Max Trk Ch %2d)\00", align 1
@.str.758 = private unnamed_addr constant [16 x i8] c"Unknown GNSS ID\00", align 1

; Function Attrs: nounwind uwtable
define internal i32 @dissect_ubx_cfg_gnss(ptr noundef %0, ptr noundef %1, ptr noundef %2, ptr noundef %3) #0 {
  %5 = alloca ptr, align 8
  %6 = alloca ptr, align 8
  %7 = alloca ptr, align 8
  %8 = alloca ptr, align 8
  %9 = alloca i8, align 1
  %10 = alloca i8, align 1
  %11 = alloca ptr, align 8
  %12 = alloca ptr, align 8
  %13 = alloca i8, align 1
  %14 = alloca i8, align 1
  %15 = alloca i8, align 1
  %16 = alloca ptr, align 8
  %17 = alloca i32, align 4
  store ptr %0, ptr %5, align 8
  store ptr %1, ptr %6, align 8
  store ptr %2, ptr %7, align 8
  store ptr %3, ptr %8, align 8
  %18 = load ptr, ptr %6, align 8
  %19 = getelementptr inbounds %struct._packet_info, ptr %18, i32 0, i32 1
  %20 = load ptr, ptr %19, align 8
  call void @col_set_str(ptr noundef %20, i32 noundef 34, ptr noundef @.str.14)
  %21 = load ptr, ptr %6, align 8
  %22 = getelementptr inbounds %struct._packet_info, ptr %21, i32 0, i32 1
  %23 = load ptr, ptr %22, align 8
  call void @col_clear(ptr noundef %23, i32 noundef 25)
  %24 = load ptr, ptr %5, align 8
  %25 = call zeroext i8 @tvb_get_guint8(ptr noundef %24, i32 noundef 3)
  store i8 %25, ptr %10, align 1
  %26 = load ptr, ptr %7, align 8
  %27 = load i32, ptr @hf_ubx_cfg_gnss, align 4
  %28 = load ptr, ptr %5, align 8
  %29 = load i8, ptr %10, align 1
  %30 = zext i8 %29 to i32
  %31 = mul i32 8, %30
  %32 = add i32 4, %31
  %33 = call ptr @proto_tree_add_item(ptr noundef %26, i32 noundef %27, ptr noundef %28, i32 noundef 0, i32 noundef %32, i32 noundef 0)
  store ptr %33, ptr %11, align 8
  %34 = load ptr, ptr %11, align 8
  %35 = load i32, ptr @ett_ubx_cfg_gnss, align 4
  %36 = call ptr @proto_item_add_subtree(ptr noundef %34, i32 noundef %35)
  store ptr %36, ptr %12, align 8
  %37 = load ptr, ptr %12, align 8
  %38 = load i32, ptr @hf_ubx_cfg_gnss_version, align 4
  %39 = load ptr, ptr %5, align 8
  %40 = call ptr @proto_tree_add_item(ptr noundef %37, i32 noundef %38, ptr noundef %39, i32 noundef 0, i32 noundef 1, i32 noundef 0)
  %41 = load ptr, ptr %12, align 8
  %42 = load i32, ptr @hf_ubx_cfg_gnss_numtrkchhw, align 4
  %43 = load ptr, ptr %5, align 8
  %44 = call ptr @proto_tree_add_item(ptr noundef %41, i32 noundef %42, ptr noundef %43, i32 noundef 1, i32 noundef 1, i32 noundef 0)
  %45 = load ptr, ptr %12, align 8
  %46 = load i32, ptr @hf_ubx_cfg_gnss_numtrkchuse, align 4
  %47 = load ptr, ptr %5, align 8
  %48 = call ptr @proto_tree_add_item(ptr noundef %45, i32 noundef %46, ptr noundef %47, i32 noundef 2, i32 noundef 1, i32 noundef 0)
  %49 = load ptr, ptr %12, align 8
  %50 = load i32, ptr @hf_ubx_cfg_gnss_numconfigblocks, align 4
  %51 = load ptr, ptr %5, align 8
  %52 = call ptr @proto_tree_add_item(ptr noundef %49, i32 noundef %50, ptr noundef %51, i32 noundef 3, i32 noundef 1, i32 noundef 0)
  store i8 0, ptr %9, align 1
  br label %53

53:                                               ; preds = %163, %4
  %54 = load i8, ptr %9, align 1
  %55 = zext i8 %54 to i32
  %56 = load i8, ptr %10, align 1
  %57 = zext i8 %56 to i32
  %58 = icmp slt i32 %55, %57
  br i1 %58, label %59, label %166

59:                                               ; preds = %53
  %60 = load ptr, ptr %5, align 8
  %61 = load i8, ptr %9, align 1
  %62 = zext i8 %61 to i32
  %63 = mul i32 8, %62
  %64 = add i32 4, %63
  %65 = call zeroext i8 @tvb_get_guint8(ptr noundef %60, i32 noundef %64)
  store i8 %65, ptr %13, align 1
  %66 = load ptr, ptr %5, align 8
  %67 = load i8, ptr %9, align 1
  %68 = zext i8 %67 to i32
  %69 = mul i32 8, %68
  %70 = add i32 5, %69
  %71 = call zeroext i8 @tvb_get_guint8(ptr noundef %66, i32 noundef %70)
  store i8 %71, ptr %14, align 1
  %72 = load ptr, ptr %5, align 8
  %73 = load i8, ptr %9, align 1
  %74 = zext i8 %73 to i32
  %75 = mul i32 8, %74
  %76 = add i32 6, %75
  %77 = call zeroext i8 @tvb_get_guint8(ptr noundef %72, i32 noundef %76)
  store i8 %77, ptr %15, align 1
  %78 = load ptr, ptr %12, align 8
  %79 = load ptr, ptr %5, align 8
  %80 = load i8, ptr %9, align 1
  %81 = zext i8 %80 to i32
  %82 = mul i32 8, %81
  %83 = add i32 4, %82
  %84 = load i8, ptr %9, align 1
  %85 = zext i8 %84 to i64
  %86 = getelementptr [255 x i32], ptr @ett_ubx_cfg_gnss_block, i64 0, i64 %85
  %87 = load i32, ptr %86, align 4
  %88 = load i8, ptr %13, align 1
  %89 = zext i8 %88 to i32
  %90 = call ptr @val_to_str_const(i32 noundef %89, ptr noundef @UBX_GNSS_ID, ptr noundef @.str.758)
  %91 = load i8, ptr %14, align 1
  %92 = zext i8 %91 to i32
  %93 = load i8, ptr %15, align 1
  %94 = zext i8 %93 to i32
  %95 = call ptr (ptr, ptr, i32, i32, i32, ptr, ptr, ...) @proto_tree_add_subtree_format(ptr noundef %78, ptr noundef %79, i32 noundef %83, i32 noundef 8, i32 noundef %87, ptr noundef null, ptr noundef @.str.757, ptr noundef %90, i32 noundef %92, i32 noundef %94)
  store ptr %95, ptr %16, align 8
  %96 = load ptr, ptr %16, align 8
  %97 = load i32, ptr @hf_ubx_cfg_gnss_blk_gnssid, align 4
  %98 = load ptr, ptr %5, align 8
  %99 = load i8, ptr %9, align 1
  %100 = zext i8 %99 to i32
  %101 = mul i32 8, %100
  %102 = add i32 4, %101
  %103 = call ptr @proto_tree_add_item(ptr noundef %96, i32 noundef %97, ptr noundef %98, i32 noundef %102, i32 noundef 1, i32 noundef 0)
  %104 = load ptr, ptr %16, align 8
  %105 = load i32, ptr @hf_ubx_cfg_gnss_blk_restrkch, align 4
  %106 = load ptr, ptr %5, align 8
  %107 = load i8, ptr %9, align 1
  %108 = zext i8 %107 to i32
  %109 = mul i32 8, %108
  %110 = add i32 5, %109
  %111 = call ptr @proto_tree_add_item(ptr noundef %104, i32 noundef %105, ptr noundef %106, i32 noundef %110, i32 noundef 1, i32 noundef 0)
  %112 = load ptr, ptr %16, align 8
  %113 = load i32, ptr @hf_ubx_cfg_gnss_blk_maxtrkch, align 4
  %114 = load ptr, ptr %5, align 8
  %115 = load i8, ptr %9, align 1
  %116 = zext i8 %115 to i32
  %117 = mul i32 8, %116
  %118 = add i32 6, %117
  %119 = call ptr @proto_tree_add_item(ptr noundef %112, i32 noundef %113, ptr noundef %114, i32 noundef %118, i32 noundef 1, i32 noundef 0)
  %120 = load ptr, ptr %16, align 8
  %121 = load i32, ptr @hf_ubx_cfg_gnss_blk_reserved1, align 4
  %122 = load ptr, ptr %5, align 8
  %123 = load i8, ptr %9, align 1
  %124 = zext i8 %123 to i32
  %125 = mul i32 8, %124
  %126 = add i32 7, %125
  %127 = call ptr @proto_tree_add_item(ptr noundef %120, i32 noundef %121, ptr noundef %122, i32 noundef %126, i32 noundef 1, i32 noundef 0)
  %128 = load ptr, ptr %16, align 8
  %129 = load i32, ptr @hf_ubx_cfg_gnss_blk_enable, align 4
  %130 = load ptr, ptr %5, align 8
  %131 = load i8, ptr %9, align 1
  %132 = zext i8 %131 to i32
  %133 = mul i32 8, %132
  %134 = add i32 8, %133
  %135 = call ptr @proto_tree_add_item(ptr noundef %128, i32 noundef %129, ptr noundef %130, i32 noundef %134, i32 noundef 4, i32 noundef -2147483648)
  %136 = load i8, ptr %13, align 1
  %137 = zext i8 %136 to i32
  switch i32 %137, label %152 [
    i32 0, label %138
    i32 1, label %140
    i32 2, label %142
    i32 3, label %144
    i32 4, label %146
    i32 5, label %148
    i32 6, label %150
  ]

138:                                              ; preds = %59
  %139 = load i32, ptr @hf_ubx_cfg_gnss_blk_gps_sigcfgmask, align 4
  store i32 %139, ptr %17, align 4
  br label %154

140:                                              ; preds = %59
  %141 = load i32, ptr @hf_ubx_cfg_gnss_blk_sbas_sigcfgmask, align 4
  store i32 %141, ptr %17, align 4
  br label %154

142:                                              ; preds = %59
  %143 = load i32, ptr @hf_ubx_cfg_gnss_blk_gal_sigcfgmask, align 4
  store i32 %143, ptr %17, align 4
  br label %154

144:                                              ; preds = %59
  %145 = load i32, ptr @hf_ubx_cfg_gnss_blk_bds_sigcfgmask, align 4
  store i32 %145, ptr %17, align 4
  br label %154

146:                                              ; preds = %59
  %147 = load i32, ptr @hf_ubx_cfg_gnss_blk_imes_sigcfgmask, align 4
  store i32 %147, ptr %17, align 4
  br label %154

148:                                              ; preds = %59
  %149 = load i32, ptr @hf_ubx_cfg_gnss_blk_qzss_sigcfgmask, align 4
  store i32 %149, ptr %17, align 4
  br label %154

150:                                              ; preds = %59
  %151 = load i32, ptr @hf_ubx_cfg_gnss_blk_glo_sigcfgmask, align 4
  store i32 %151, ptr %17, align 4
  br label %154

152:                                              ; preds = %59
  %153 = load i32, ptr @hf_ubx_cfg_gnss_blk_sigcfgmask, align 4
  store i32 %153, ptr %17, align 4
  br label %154

154:                                              ; preds = %152, %150, %148, %146, %144, %142, %140, %138
  %155 = load ptr, ptr %16, align 8
  %156 = load i32, ptr %17, align 4
  %157 = load ptr, ptr %5, align 8
  %158 = load i8, ptr %9, align 1
  %159 = zext i8 %158 to i32
  %160 = mul i32 8, %159
  %161 = add i32 8, %160
  %162 = call ptr @proto_tree_add_item(ptr noundef %155, i32 noundef %156, ptr noundef %157, i32 noundef %161, i32 noundef 4, i32 noundef -2147483648)
  br label %163

163:                                              ; preds = %154
  %164 = load i8, ptr %9, align 1
  %165 = add i8 %164, 1
  store i8 %165, ptr %9, align 1
  br label %53, !llvm.loop !11

166:                                              ; preds = %53
  %167 = load ptr, ptr %5, align 8
  %168 = call i32 @tvb_captured_length(ptr noundef %167)
  ret i32 %168
}