; Function Attrs: nounwind uwtable
define internal i32 @dissect_ubx_cfg_gnss(ptr noundef %0, ptr noundef readonly captures(none) %1, ptr noundef %2, ptr readnone captures(none) %3) #0 {
  %5 = getelementptr inbounds nuw i8, ptr %1, i64 8
  %6 = load ptr, ptr %5, align 8
  tail call void @col_set_str(ptr noundef %6, i32 noundef 34, ptr noundef nonnull @.str.14) #5
  %7 = load ptr, ptr %5, align 8
  tail call void @col_clear(ptr noundef %7, i32 noundef 25) #5
  %8 = tail call zeroext i8 @tvb_get_guint8(ptr noundef %0, i32 noundef 3) #5
  %9 = load i32, ptr @hf_ubx_cfg_gnss, align 4
  %10 = zext i8 %8 to i32
  %11 = shl nuw nsw i32 %10, 3
  %12 = or disjoint i32 %11, 4
  %13 = tail call ptr @proto_tree_add_item(ptr noundef %2, i32 noundef %9, ptr noundef %0, i32 noundef 0, i32 noundef %12, i32 noundef 0) #5
  %14 = load i32, ptr @ett_ubx_cfg_gnss, align 4
  %15 = tail call ptr @proto_item_add_subtree(ptr noundef %13, i32 noundef %14) #5
  %16 = load i32, ptr @hf_ubx_cfg_gnss_version, align 4
  %17 = tail call ptr @proto_tree_add_item(ptr noundef %15, i32 noundef %16, ptr noundef %0, i32 noundef 0, i32 noundef 1, i32 noundef 0) #5
  %18 = load i32, ptr @hf_ubx_cfg_gnss_numtrkchhw, align 4
  %19 = tail call ptr @proto_tree_add_item(ptr noundef %15, i32 noundef %18, ptr noundef %0, i32 noundef 1, i32 noundef 1, i32 noundef 0) #5
  %20 = load i32, ptr @hf_ubx_cfg_gnss_numtrkchuse, align 4
  %21 = tail call ptr @proto_tree_add_item(ptr noundef %15, i32 noundef %20, ptr noundef %0, i32 noundef 2, i32 noundef 1, i32 noundef 0) #5
  %22 = load i32, ptr @hf_ubx_cfg_gnss_numconfigblocks, align 4
  %23 = tail call ptr @proto_tree_add_item(ptr noundef %15, i32 noundef %22, ptr noundef %0, i32 noundef 3, i32 noundef 1, i32 noundef 0) #5
  %.not = icmp eq i8 %8, 0
  br i1 %.not, label %._crit_edge, label %.lr.ph.preheader

.lr.ph.preheader:                                 ; preds = %4
  %wide.trip.count = zext i8 %8 to i64
  br label %.lr.ph

.lr.ph:                                           ; preds = %.lr.ph.preheader, %53
  %indvars.iv = phi i64 [ 0, %.lr.ph.preheader ], [ %indvars.iv.next, %53 ]
  %24 = trunc nuw i64 %indvars.iv to i32
  %25 = shl nuw nsw i32 %24, 3
  %26 = or disjoint i32 %25, 4
  %27 = tail call zeroext i8 @tvb_get_guint8(ptr noundef %0, i32 noundef %26) #5
  %28 = or disjoint i32 %25, 5
  %29 = tail call zeroext i8 @tvb_get_guint8(ptr noundef %0, i32 noundef %28) #5
  %30 = or disjoint i32 %25, 6
  %31 = tail call zeroext i8 @tvb_get_guint8(ptr noundef %0, i32 noundef %30) #5
  %32 = getelementptr [255 x i32], ptr @ett_ubx_cfg_gnss_block, i64 0, i64 %indvars.iv
  %33 = load i32, ptr %32, align 4
  %34 = zext i8 %27 to i32
  %35 = tail call ptr @val_to_str_const(i32 noundef %34, ptr noundef nonnull @UBX_GNSS_ID, ptr noundef nonnull @.str.758) #5
  %36 = zext i8 %29 to i32
  %37 = zext i8 %31 to i32
  %38 = tail call ptr (ptr, ptr, i32, i32, i32, ptr, ptr, ...) @proto_tree_add_subtree_format(ptr noundef %15, ptr noundef %0, i32 noundef %26, i32 noundef 8, i32 noundef %33, ptr noundef null, ptr noundef nonnull @.str.757, ptr noundef %35, i32 noundef %36, i32 noundef %37) #5
  %39 = load i32, ptr @hf_ubx_cfg_gnss_blk_gnssid, align 4
  %40 = tail call ptr @proto_tree_add_item(ptr noundef %38, i32 noundef %39, ptr noundef %0, i32 noundef %26, i32 noundef 1, i32 noundef 0) #5
  %41 = load i32, ptr @hf_ubx_cfg_gnss_blk_restrkch, align 4
  %42 = tail call ptr @proto_tree_add_item(ptr noundef %38, i32 noundef %41, ptr noundef %0, i32 noundef %28, i32 noundef 1, i32 noundef 0) #5
  %43 = load i32, ptr @hf_ubx_cfg_gnss_blk_maxtrkch, align 4
  %44 = tail call ptr @proto_tree_add_item(ptr noundef %38, i32 noundef %43, ptr noundef %0, i32 noundef %30, i32 noundef 1, i32 noundef 0) #5
  %45 = load i32, ptr @hf_ubx_cfg_gnss_blk_reserved1, align 4
  %46 = or disjoint i32 %25, 7
  %47 = tail call ptr @proto_tree_add_item(ptr noundef %38, i32 noundef %45, ptr noundef %0, i32 noundef %46, i32 noundef 1, i32 noundef 0) #5
  %48 = load i32, ptr @hf_ubx_cfg_gnss_blk_enable, align 4
  %49 = add nuw nsw i32 %25, 8
  %50 = tail call ptr @proto_tree_add_item(ptr noundef %38, i32 noundef %48, ptr noundef %0, i32 noundef %49, i32 noundef 4, i32 noundef -2147483648) #5
  %51 = icmp ult i8 %27, 7
  br i1 %51, label %switch.lookup, label %53

switch.lookup:                                    ; preds = %.lr.ph
  %52 = zext nneg i8 %27 to i64
  %switch.gep = getelementptr inbounds nuw [7 x ptr], ptr @switch.table.dissect_ubx_cfg_gnss, i64 0, i64 %52
  %switch.load = load ptr, ptr %switch.gep, align 8
  br label %53

53:                                               ; preds = %.lr.ph, %switch.lookup
  %.0.in = phi ptr [ %switch.load, %switch.lookup ], [ @hf_ubx_cfg_gnss_blk_sigcfgmask, %.lr.ph ]
  %.0 = load i32, ptr %.0.in, align 4
  %54 = tail call ptr @proto_tree_add_item(ptr noundef %38, i32 noundef %.0, ptr noundef %0, i32 noundef %49, i32 noundef 4, i32 noundef -2147483648) #5
  %indvars.iv.next = add nuw nsw i64 %indvars.iv, 1
  %exitcond.not = icmp eq i64 %indvars.iv.next, %wide.trip.count
  br i1 %exitcond.not, label %._crit_edge, label %.lr.ph, !llvm.loop !11

._crit_edge:                                      ; preds = %53, %4
  %55 = tail call i32 @tvb_captured_length(ptr noundef %0) #5
  ret i32 %55
}